; Function Attrs: mustprogress nofree norecurse nosync nounwind willreturn memory(read, argmem: readwrite, inaccessiblemem: none) uwtable
define void @_ZN14duckdb_parquet8NullTypeC2ERKS0_(ptr noundef nonnull writeonly align 8 captures(none) dereferenceable(8) initializes((0, 8)) %0, ptr noundef readonly captures(none) %1, ptr noundef nonnull readnone align 8 captures(none) dereferenceable(8) %2) unnamed_addr #7 align 2 {
  %4 = load ptr, ptr %1, align 8
  store ptr %4, ptr %0, align 8, !tbaa !22
  %5 = getelementptr inbounds nuw i8, ptr %1, i64 8
  %6 = load ptr, ptr %5, align 8
  %7 = getelementptr i8, ptr %4, i64 -48
  %8 = load i64, ptr %7, align 8
  %9 = getelementptr inbounds i8, ptr %0, i64 %8
  store ptr %6, ptr %9, align 8, !tbaa !22
  ret void
}